target datalayout = "e-m:e-p270:32:32-p271:32:32-p272:64:64-i64:64-i128:128-f80:128-n8:16:32:64-S128"
target triple = "x86_64-pc-linux-gnu"

%struct.hb_face_t = type { %struct.hb_object_header_t, i32, %struct.hb_atomic_int_t, %struct.hb_atomic_int_t, ptr, ptr, ptr, ptr, ptr, ptr, %struct.hb_shaper_object_dataset_t, %struct.hb_ot_face_t, %struct.hb_atomic_ptr_t.142 }
%struct.hb_object_header_t = type { %struct.hb_reference_count_t, %struct.hb_atomic_int_t, %struct.hb_atomic_ptr_t }
%struct.hb_reference_count_t = type { %struct.hb_atomic_int_t }
%struct.hb_atomic_ptr_t = type { ptr }
%struct.hb_atomic_int_t = type { i32 }
%struct.hb_shaper_object_dataset_t = type { ptr, %struct.hb_shaper_lazy_loader_t, %struct.hb_shaper_lazy_loader_t.1 }
%struct.hb_shaper_lazy_loader_t = type { %struct.hb_lazy_loader_t }
%struct.hb_lazy_loader_t = type { %struct.hb_atomic_ptr_t.0 }
%struct.hb_atomic_ptr_t.0 = type { ptr }
%struct.hb_shaper_lazy_loader_t.1 = type { %struct.hb_lazy_loader_t.2 }
%struct.hb_lazy_loader_t.2 = type { %struct.hb_atomic_ptr_t.4 }
%struct.hb_atomic_ptr_t.4 = type { ptr }
%struct.hb_ot_face_t = type { ptr, %struct.hb_table_lazy_loader_t, %struct.hb_table_lazy_loader_t.7, %struct.hb_face_lazy_loader_t, %struct.hb_table_lazy_loader_t.12, %struct.hb_face_lazy_loader_t.15, %struct.hb_table_lazy_loader_t.19, %struct.hb_face_lazy_loader_t.22, %struct.hb_face_lazy_loader_t.26, %struct.hb_table_lazy_loader_t.30, %struct.hb_face_lazy_loader_t.33, %struct.hb_table_lazy_loader_t.37, %struct.hb_face_lazy_loader_t.40, %struct.hb_table_lazy_loader_t.44, %struct.hb_table_lazy_loader_t.47, %struct.hb_face_lazy_loader_t.50, %struct.hb_face_lazy_loader_t.54, %struct.hb_face_lazy_loader_t.58, %struct.hb_table_lazy_loader_t.62, %struct.hb_table_lazy_loader_t.65, %struct.hb_table_lazy_loader_t.68, %struct.hb_face_lazy_loader_t.71, %struct.hb_table_lazy_loader_t.75, %struct.hb_face_lazy_loader_t.78, %struct.hb_face_lazy_loader_t.82, %struct.hb_face_lazy_loader_t.86, %struct.hb_face_lazy_loader_t.90, %struct.hb_table_lazy_loader_t.94, %struct.hb_face_lazy_loader_t.97, %struct.hb_face_lazy_loader_t.101, %struct.hb_face_lazy_loader_t.105, %struct.hb_table_lazy_loader_t.109, %struct.hb_table_lazy_loader_t.112, %struct.hb_table_lazy_loader_t.115, %struct.hb_table_lazy_loader_t.118, %struct.hb_table_lazy_loader_t.121, %struct.hb_table_lazy_loader_t.124, %struct.hb_face_lazy_loader_t.127, %struct.hb_face_lazy_loader_t.131, %struct.hb_face_lazy_loader_t.135, %struct.hb_table_lazy_loader_t.139 }
%struct.hb_table_lazy_loader_t = type { %struct.hb_lazy_loader_t.5 }
%struct.hb_lazy_loader_t.5 = type { %struct.hb_atomic_ptr_t.6 }
%struct.hb_atomic_ptr_t.6 = type { ptr }
%struct.hb_table_lazy_loader_t.7 = type { %struct.hb_lazy_loader_t.8 }
%struct.hb_lazy_loader_t.8 = type { %struct.hb_atomic_ptr_t.6 }
%struct.hb_face_lazy_loader_t = type { %struct.hb_lazy_loader_t.9 }
%struct.hb_lazy_loader_t.9 = type { %struct.hb_atomic_ptr_t.11 }
%struct.hb_atomic_ptr_t.11 = type { ptr }
%struct.hb_table_lazy_loader_t.12 = type { %struct.hb_lazy_loader_t.13 }
%struct.hb_lazy_loader_t.13 = type { %struct.hb_atomic_ptr_t.6 }
%struct.hb_face_lazy_loader_t.15 = type { %struct.hb_lazy_loader_t.16 }
%struct.hb_lazy_loader_t.16 = type { %struct.hb_atomic_ptr_t.18 }
%struct.hb_atomic_ptr_t.18 = type { ptr }
%struct.hb_table_lazy_loader_t.19 = type { %struct.hb_lazy_loader_t.20 }
%struct.hb_lazy_loader_t.20 = type { %struct.hb_atomic_ptr_t.6 }
%struct.hb_face_lazy_loader_t.22 = type { %struct.hb_lazy_loader_t.23 }
%struct.hb_lazy_loader_t.23 = type { %struct.hb_atomic_ptr_t.25 }
%struct.hb_atomic_ptr_t.25 = type { ptr }
%struct.hb_face_lazy_loader_t.26 = type { %struct.hb_lazy_loader_t.27 }
%struct.hb_lazy_loader_t.27 = type { %struct.hb_atomic_ptr_t.29 }
%struct.hb_atomic_ptr_t.29 = type { ptr }
%struct.hb_table_lazy_loader_t.30 = type { %struct.hb_lazy_loader_t.31 }
%struct.hb_lazy_loader_t.31 = type { %struct.hb_atomic_ptr_t.6 }
%struct.hb_face_lazy_loader_t.33 = type { %struct.hb_lazy_loader_t.34 }
%struct.hb_lazy_loader_t.34 = type { %struct.hb_atomic_ptr_t.36 }
%struct.hb_atomic_ptr_t.36 = type { ptr }
%struct.hb_table_lazy_loader_t.37 = type { %struct.hb_lazy_loader_t.38 }
%struct.hb_lazy_loader_t.38 = type { %struct.hb_atomic_ptr_t.6 }
%struct.hb_face_lazy_loader_t.40 = type { %struct.hb_lazy_loader_t.41 }
%struct.hb_lazy_loader_t.41 = type { %struct.hb_atomic_ptr_t.43 }
%struct.hb_atomic_ptr_t.43 = type { ptr }
%struct.hb_table_lazy_loader_t.44 = type { %struct.hb_lazy_loader_t.45 }
%struct.hb_lazy_loader_t.45 = type { %struct.hb_atomic_ptr_t.6 }
%struct.hb_table_lazy_loader_t.47 = type { %struct.hb_lazy_loader_t.48 }
%struct.hb_lazy_loader_t.48 = type { %struct.hb_atomic_ptr_t.6 }
%struct.hb_face_lazy_loader_t.50 = type { %struct.hb_lazy_loader_t.51 }
%struct.hb_lazy_loader_t.51 = type { %struct.hb_atomic_ptr_t.53 }
%struct.hb_atomic_ptr_t.53 = type { ptr }
%struct.hb_face_lazy_loader_t.54 = type { %struct.hb_lazy_loader_t.55 }
%struct.hb_lazy_loader_t.55 = type { %struct.hb_atomic_ptr_t.57 }
%struct.hb_atomic_ptr_t.57 = type { ptr }
%struct.hb_face_lazy_loader_t.58 = type { %struct.hb_lazy_loader_t.59 }
%struct.hb_lazy_loader_t.59 = type { %struct.hb_atomic_ptr_t.61 }
%struct.hb_atomic_ptr_t.61 = type { ptr }
%struct.hb_table_lazy_loader_t.62 = type { %struct.hb_lazy_loader_t.63 }
%struct.hb_lazy_loader_t.63 = type { %struct.hb_atomic_ptr_t.6 }
%struct.hb_table_lazy_loader_t.65 = type { %struct.hb_lazy_loader_t.66 }
%struct.hb_lazy_loader_t.66 = type { %struct.hb_atomic_ptr_t.6 }
%struct.hb_table_lazy_loader_t.68 = type { %struct.hb_lazy_loader_t.69 }
%struct.hb_lazy_loader_t.69 = type { %struct.hb_atomic_ptr_t.6 }
%struct.hb_face_lazy_loader_t.71 = type { %struct.hb_lazy_loader_t.72 }
%struct.hb_lazy_loader_t.72 = type { %struct.hb_atomic_ptr_t.74 }
%struct.hb_atomic_ptr_t.74 = type { ptr }
%struct.hb_table_lazy_loader_t.75 = type { %struct.hb_lazy_loader_t.76 }
%struct.hb_lazy_loader_t.76 = type { %struct.hb_atomic_ptr_t.6 }
%struct.hb_face_lazy_loader_t.78 = type { %struct.hb_lazy_loader_t.79 }
%struct.hb_lazy_loader_t.79 = type { %struct.hb_atomic_ptr_t.81 }
%struct.hb_atomic_ptr_t.81 = type { ptr }
%struct.hb_face_lazy_loader_t.82 = type { %struct.hb_lazy_loader_t.83 }
%struct.hb_lazy_loader_t.83 = type { %struct.hb_atomic_ptr_t.85 }
%struct.hb_atomic_ptr_t.85 = type { ptr }
%struct.hb_face_lazy_loader_t.86 = type { %struct.hb_lazy_loader_t.87 }
%struct.hb_lazy_loader_t.87 = type { %struct.hb_atomic_ptr_t.89 }
%struct.hb_atomic_ptr_t.89 = type { ptr }
%struct.hb_face_lazy_loader_t.90 = type { %struct.hb_lazy_loader_t.91 }
%struct.hb_lazy_loader_t.91 = type { %struct.hb_atomic_ptr_t.93 }
%struct.hb_atomic_ptr_t.93 = type { ptr }
%struct.hb_table_lazy_loader_t.94 = type { %struct.hb_lazy_loader_t.95 }
%struct.hb_lazy_loader_t.95 = type { %struct.hb_atomic_ptr_t.6 }
%struct.hb_face_lazy_loader_t.97 = type { %struct.hb_lazy_loader_t.98 }
%struct.hb_lazy_loader_t.98 = type { %struct.hb_atomic_ptr_t.100 }
%struct.hb_atomic_ptr_t.100 = type { ptr }
%struct.hb_face_lazy_loader_t.101 = type { %struct.hb_lazy_loader_t.102 }
%struct.hb_lazy_loader_t.102 = type { %struct.hb_atomic_ptr_t.104 }
%struct.hb_atomic_ptr_t.104 = type { ptr }
%struct.hb_face_lazy_loader_t.105 = type { %struct.hb_lazy_loader_t.106 }
%struct.hb_lazy_loader_t.106 = type { %struct.hb_atomic_ptr_t.108 }
%struct.hb_atomic_ptr_t.108 = type { ptr }
%struct.hb_table_lazy_loader_t.109 = type { %struct.hb_lazy_loader_t.110 }
%struct.hb_lazy_loader_t.110 = type { %struct.hb_atomic_ptr_t.6 }
%struct.hb_table_lazy_loader_t.112 = type { %struct.hb_lazy_loader_t.113 }
%struct.hb_lazy_loader_t.113 = type { %struct.hb_atomic_ptr_t.6 }
%struct.hb_table_lazy_loader_t.115 = type { %struct.hb_lazy_loader_t.116 }
%struct.hb_lazy_loader_t.116 = type { %struct.hb_atomic_ptr_t.6 }
%struct.hb_table_lazy_loader_t.118 = type { %struct.hb_lazy_loader_t.119 }
%struct.hb_lazy_loader_t.119 = type { %struct.hb_atomic_ptr_t.6 }
%struct.hb_table_lazy_loader_t.121 = type { %struct.hb_lazy_loader_t.122 }
%struct.hb_lazy_loader_t.122 = type { %struct.hb_atomic_ptr_t.6 }
%struct.hb_table_lazy_loader_t.124 = type { %struct.hb_lazy_loader_t.125 }
%struct.hb_lazy_loader_t.125 = type { %struct.hb_atomic_ptr_t.6 }
%struct.hb_face_lazy_loader_t.127 = type { %struct.hb_lazy_loader_t.128 }
%struct.hb_lazy_loader_t.128 = type { %struct.hb_atomic_ptr_t.130 }
%struct.hb_atomic_ptr_t.130 = type { ptr }
%struct.hb_face_lazy_loader_t.131 = type { %struct.hb_lazy_loader_t.132 }
%struct.hb_lazy_loader_t.132 = type { %struct.hb_atomic_ptr_t.134 }
%struct.hb_atomic_ptr_t.134 = type { ptr }
%struct.hb_face_lazy_loader_t.135 = type { %struct.hb_lazy_loader_t.136 }
%struct.hb_lazy_loader_t.136 = type { %struct.hb_atomic_ptr_t.138 }
%struct.hb_atomic_ptr_t.138 = type { ptr }
%struct.hb_table_lazy_loader_t.139 = type { %struct.hb_lazy_loader_t.140 }
%struct.hb_lazy_loader_t.140 = type { %struct.hb_atomic_ptr_t.6 }
%struct.hb_atomic_ptr_t.142 = type { ptr }
%struct.hb_font_t = type { %struct.hb_object_header_t, i32, i32, ptr, ptr, i32, i32, float, float, i8, i32, i32, float, float, float, float, i64, i64, i32, i32, float, i32, i32, ptr, ptr, ptr, ptr, ptr, %struct.hb_shaper_object_dataset_t.149 }
%struct.hb_shaper_object_dataset_t.149 = type { ptr, %struct.hb_shaper_lazy_loader_t.150, %struct.hb_shaper_lazy_loader_t.154 }
%struct.hb_shaper_lazy_loader_t.150 = type { %struct.hb_lazy_loader_t.151 }
%struct.hb_lazy_loader_t.151 = type { %struct.hb_atomic_ptr_t.153 }
%struct.hb_atomic_ptr_t.153 = type { ptr }
%struct.hb_shaper_lazy_loader_t.154 = type { %struct.hb_lazy_loader_t.155 }
%struct.hb_lazy_loader_t.155 = type { %struct.hb_atomic_ptr_t.157 }
%struct.hb_atomic_ptr_t.157 = type { ptr }

@_hb_NullPool = hidden constant [80 x i64] zeroinitializer, align 16

; Function Attrs: inlinehint mustprogress nounwind uwtable
define internal noundef zeroext i1 @_ZL28_hb_atomic_ptr_impl_cmplexchPPKvS0_S0_(ptr noundef %0, ptr noundef %1, ptr noundef %2) #1 {
  %4 = alloca ptr, align 8
  %5 = alloca ptr, align 8
  %6 = alloca ptr, align 8
  %7 = alloca ptr, align 8
  %8 = alloca ptr, align 8
  %9 = alloca i8, align 1
  store ptr %0, ptr %4, align 8, !tbaa !131
  store ptr %1, ptr %5, align 8, !tbaa !13
  store ptr %2, ptr %6, align 8, !tbaa !13
  call void @llvm.lifetime.start.p0(i64 8, ptr %7) #13
  %10 = load ptr, ptr %5, align 8, !tbaa !13
  store ptr %10, ptr %7, align 8, !tbaa !13
  %11 = load ptr, ptr %4, align 8, !tbaa !131
  %12 = load ptr, ptr %6, align 8, !tbaa !13
  store ptr %12, ptr %8, align 8, !tbaa !13
  %13 = load i64, ptr %7, align 8
  %14 = load i64, ptr %8, align 8
  %15 = cmpxchg weak ptr %11, i64 %13, i64 %14 acq_rel monotonic, align 8
  %16 = extractvalue { i64, i1 } %15, 0
  %17 = extractvalue { i64, i1 } %15, 1
  br i1 %17, label %19, label %18

18:                                               ; preds = %3
  store i64 %16, ptr %7, align 8
  br label %19

19:                                               ; preds = %18, %3
  %20 = zext i1 %17 to i8
  store i8 %20, ptr %9, align 1, !tbaa !24
  %21 = load i8, ptr %9, align 1, !tbaa !24, !range !46, !noundef !47
  %22 = trunc i8 %21 to i1
  call void @llvm.lifetime.end.p0(i64 8, ptr %7) #13
  ret i1 %22
}

; Function Attrs: mustprogress nounwind uwtable
define linkonce_odr dso_local noundef nonnull align 8 dereferenceable(48) ptr @_ZN4NullIN2OT18glyf_accelerator_tEE8get_nullEv() #0 comdat align 2 {
  ret ptr @_hb_NullPool
}

; Function Attrs: mustprogress nounwind uwtable
define linkonce_odr dso_local noundef zeroext i1 @_ZNK15hb_atomic_ptr_tIPN2OT18glyf_accelerator_tEE7cmpexchEPKS1_S2_(ptr noundef nonnull align 8 dereferenceable(8) %0, ptr noundef %1, ptr noundef %2) #0 comdat align 2 {
  %4 = alloca ptr, align 8
  %5 = alloca ptr, align 8
  %6 = alloca ptr, align 8
  store ptr %0, ptr %4, align 8, !tbaa !485
  store ptr %1, ptr %5, align 8, !tbaa !50
  store ptr %2, ptr %6, align 8, !tbaa !50
  %7 = load ptr, ptr %4, align 8
  %8 = getelementptr inbounds nuw %struct.hb_atomic_ptr_t.53, ptr %7, i32 0, i32 0
  %9 = load ptr, ptr %5, align 8, !tbaa !50
  %10 = load ptr, ptr %6, align 8, !tbaa !50
  %11 = call noundef zeroext i1 @_ZL28_hb_atomic_ptr_impl_cmplexchPPKvS0_S0_(ptr noundef %8, ptr noundef %9, ptr noundef %10)
  ret i1 %11
}

; Function Attrs: mustprogress nounwind uwtable
define linkonce_odr dso_local noundef nonnull align 8 dereferenceable(48) ptr @_ZN10NullHelperIN2OT18glyf_accelerator_tEE8get_nullEv() #0 comdat align 2 {
  %1 = call noundef nonnull align 8 dereferenceable(48) ptr @_ZN4NullIN2OT18glyf_accelerator_tEE8get_nullEv()
  ret ptr %1
}

; Function Attrs: mustprogress nounwind uwtable
define linkonce_odr dso_local noundef ptr @_ZNK17hb_data_wrapper_tI9hb_face_tLj15EE8get_dataEv(ptr noundef nonnull align 1 dereferenceable(1) %0) #0 comdat align 2 {
  %2 = alloca ptr, align 8
  store ptr %0, ptr %2, align 8, !tbaa !487
  %3 = load ptr, ptr %2, align 8
  %4 = getelementptr inbounds ptr, ptr %3, i64 -15
  %5 = load ptr, ptr %4, align 8, !tbaa !11
  ret ptr %5
}

; Function Attrs: mustprogress nounwind uwtable
define linkonce_odr dso_local noundef zeroext i1 @_ZNK16hb_lazy_loader_tIN2OT18glyf_accelerator_tE21hb_face_lazy_loader_tIS1_Lj15EE9hb_face_tLj15ES1_E7cmpexchEPS1_S6_(ptr noundef nonnull align 8 dereferenceable(8) %0, ptr noundef %1, ptr noundef %2) #0 comdat align 2 {
  %4 = alloca ptr, align 8
  %5 = alloca ptr, align 8
  %6 = alloca ptr, align 8
  store ptr %0, ptr %4, align 8, !tbaa !48
  store ptr %1, ptr %5, align 8, !tbaa !50
  store ptr %2, ptr %6, align 8, !tbaa !50
  %7 = load ptr, ptr %4, align 8
  %8 = getelementptr inbounds nuw %struct.hb_lazy_loader_t.51, ptr %7, i32 0, i32 0
  %9 = load ptr, ptr %5, align 8, !tbaa !50
  %10 = load ptr, ptr %6, align 8, !tbaa !50
  %11 = call noundef zeroext i1 @_ZNK15hb_atomic_ptr_tIPN2OT18glyf_accelerator_tEE7cmpexchEPKS1_S2_(ptr noundef nonnull align 8 dereferenceable(8) %8, ptr noundef %9, ptr noundef %10)
  ret i1 %11
}

; Function Attrs: mustprogress nounwind uwtable
define linkonce_odr dso_local noundef ptr @_ZN16hb_lazy_loader_tIN2OT18glyf_accelerator_tE21hb_face_lazy_loader_tIS1_Lj15EE9hb_face_tLj15ES1_E8get_nullEv() #0 comdat align 2 {
  %1 = call noundef nonnull align 8 dereferenceable(48) ptr @_ZN10NullHelperIN2OT18glyf_accelerator_tEE8get_nullEv()
  ret ptr %1
}

; Function Attrs: mustprogress nounwind uwtable
define linkonce_odr dso_local noundef zeroext i1 @_ZNK17hb_data_wrapper_tI9hb_face_tLj15EE8is_inertEv(ptr noundef nonnull align 1 dereferenceable(1) %0) #0 comdat align 2 {
  %2 = alloca ptr, align 8
  store ptr %0, ptr %2, align 8, !tbaa !487
  %3 = load ptr, ptr %2, align 8
  %4 = call noundef ptr @_ZNK17hb_data_wrapper_tI9hb_face_tLj15EE8get_dataEv(ptr noundef nonnull align 1 dereferenceable(1) %3)
  %5 = icmp ne ptr %4, null
  %6 = xor i1 %5, true
  ret i1 %6
}

; Function Attrs: mustprogress nounwind uwtable
define linkonce_odr dso_local noundef ptr @_ZNK15hb_atomic_ptr_tIPN2OT18glyf_accelerator_tEE11get_acquireEv(ptr noundef nonnull align 8 dereferenceable(8) %0) #0 comdat align 2 {
  %2 = alloca ptr, align 8
  %3 = alloca ptr, align 8
  store ptr %0, ptr %2, align 8, !tbaa !485
  %4 = load ptr, ptr %2, align 8
  %5 = getelementptr inbounds nuw %struct.hb_atomic_ptr_t.53, ptr %4, i32 0, i32 0
  %6 = load atomic i64, ptr %5 acquire, align 8
  store i64 %6, ptr %3, align 8
  %7 = load ptr, ptr %3, align 8, !tbaa !13
  ret ptr %7
}

; Function Attrs: mustprogress nounwind uwtable
define linkonce_odr dso_local noundef ptr @_ZN16hb_lazy_loader_tIN2OT18glyf_accelerator_tE21hb_face_lazy_loader_tIS1_Lj15EE9hb_face_tLj15ES1_E7convertEPS1_(ptr noundef %0) #0 comdat align 2 {
  %2 = alloca ptr, align 8
  store ptr %0, ptr %2, align 8, !tbaa !50
  %3 = load ptr, ptr %2, align 8, !tbaa !50
  ret ptr %3
}

; Function Attrs: mustprogress nounwind uwtable
define linkonce_odr dso_local noundef ptr @_ZNK16hb_lazy_loader_tIN2OT18glyf_accelerator_tE21hb_face_lazy_loader_tIS1_Lj15EE9hb_face_tLj15ES1_E10get_storedEv(ptr noundef nonnull align 8 dereferenceable(8) %0) #0 comdat align 2 {
  %2 = alloca ptr, align 8
  %3 = alloca ptr, align 8
  %4 = alloca ptr, align 8
  %5 = alloca i32, align 4
  store ptr %0, ptr %3, align 8, !tbaa !48
  %6 = load ptr, ptr %3, align 8
  br label %7

7:                                                ; preds = %45, %1
  call void @llvm.lifetime.start.p0(i64 8, ptr %4) #13
  %8 = getelementptr inbounds nuw %struct.hb_lazy_loader_t.51, ptr %6, i32 0, i32 0
  %9 = call noundef ptr @_ZNK15hb_atomic_ptr_tIPN2OT18glyf_accelerator_tEE11get_acquireEv(ptr noundef nonnull align 8 dereferenceable(8) %8)
  store ptr %9, ptr %4, align 8, !tbaa !50
  %10 = load ptr, ptr %4, align 8, !tbaa !50
  %11 = icmp ne ptr %10, null
  %12 = xor i1 %11, true
  %13 = zext i1 %12 to i64
  %14 = call i64 @llvm.expect.i64(i64 %13, i64 0)
  %15 = icmp ne i64 %14, 0
  br i1 %15, label %16, label %43

16:                                               ; preds = %7
  %17 = call noundef zeroext i1 @_ZNK17hb_data_wrapper_tI9hb_face_tLj15EE8is_inertEv(ptr noundef nonnull align 1 dereferenceable(1) %6)
  %18 = zext i1 %17 to i64
  %19 = call i64 @llvm.expect.i64(i64 %18, i64 0)
  %20 = icmp ne i64 %19, 0
  br i1 %20, label %21, label %23

21:                                               ; preds = %16
  %22 = call noundef ptr @_ZN16hb_lazy_loader_tIN2OT18glyf_accelerator_tE21hb_face_lazy_loader_tIS1_Lj15EE9hb_face_tLj15ES1_E8get_nullEv()
  store ptr %22, ptr %2, align 8
  store i32 1, ptr %5, align 4
  br label %45

23:                                               ; preds = %16
  %24 = call noundef ptr @_ZNK17hb_data_wrapper_tI9hb_face_tLj15EE11call_createIN2OT18glyf_accelerator_tE21hb_face_lazy_loader_tIS4_Lj15EEEEPT_v(ptr noundef nonnull align 1 dereferenceable(1) %6)
  store ptr %24, ptr %4, align 8, !tbaa !50
  %25 = load ptr, ptr %4, align 8, !tbaa !50
  %26 = icmp ne ptr %25, null
  %27 = xor i1 %26, true
  %28 = zext i1 %27 to i64
  %29 = call i64 @llvm.expect.i64(i64 %28, i64 0)
  %30 = icmp ne i64 %29, 0
  br i1 %30, label %31, label %33

31:                                               ; preds = %23
  %32 = call noundef ptr @_ZN16hb_lazy_loader_tIN2OT18glyf_accelerator_tE21hb_face_lazy_loader_tIS1_Lj15EE9hb_face_tLj15ES1_E8get_nullEv()
  store ptr %32, ptr %4, align 8, !tbaa !50
  br label %33

33:                                               ; preds = %31, %23
  %34 = load ptr, ptr %4, align 8, !tbaa !50
  %35 = call noundef zeroext i1 @_ZNK16hb_lazy_loader_tIN2OT18glyf_accelerator_tE21hb_face_lazy_loader_tIS1_Lj15EE9hb_face_tLj15ES1_E7cmpexchEPS1_S6_(ptr noundef nonnull align 8 dereferenceable(8) %6, ptr noundef null, ptr noundef %34)
  %36 = xor i1 %35, true
  %37 = zext i1 %36 to i64
  %38 = call i64 @llvm.expect.i64(i64 %37, i64 0)
  %39 = icmp ne i64 %38, 0
  br i1 %39, label %40, label %42

40:                                               ; preds = %33
  %41 = load ptr, ptr %4, align 8, !tbaa !50
  call void @_ZN16hb_lazy_loader_tIN2OT18glyf_accelerator_tE21hb_face_lazy_loader_tIS1_Lj15EE9hb_face_tLj15ES1_E10do_destroyEPS1_(ptr noundef %41)
  store i32 2, ptr %5, align 4
  br label %45

42:                                               ; preds = %33
  br label %43

43:                                               ; preds = %42, %7
  %44 = load ptr, ptr %4, align 8, !tbaa !50
  store ptr %44, ptr %2, align 8
  store i32 1, ptr %5, align 4
  br label %45

45:                                               ; preds = %43, %40, %21
  call void @llvm.lifetime.end.p0(i64 8, ptr %4) #13
  %46 = load i32, ptr %5, align 4
  switch i32 %46, label %49 [
    i32 1, label %47
    i32 2, label %7
  ]

47:                                               ; preds = %45
  %48 = load ptr, ptr %2, align 8
  ret ptr %48

49:                                               ; preds = %45
  unreachable
}

; Function Attrs: mustprogress nounwind uwtable
define linkonce_odr dso_local noundef ptr @_ZNK16hb_lazy_loader_tIN2OT18glyf_accelerator_tE21hb_face_lazy_loader_tIS1_Lj15EE9hb_face_tLj15ES1_E3getEv(ptr noundef nonnull align 8 dereferenceable(8) %0) #0 comdat align 2 {
  %2 = alloca ptr, align 8
  store ptr %0, ptr %2, align 8, !tbaa !48
  %3 = load ptr, ptr %2, align 8
  %4 = call noundef ptr @_ZNK16hb_lazy_loader_tIN2OT18glyf_accelerator_tE21hb_face_lazy_loader_tIS1_Lj15EE9hb_face_tLj15ES1_E10get_storedEv(ptr noundef nonnull align 8 dereferenceable(8) %3)
  %5 = call noundef ptr @_ZN16hb_lazy_loader_tIN2OT18glyf_accelerator_tE21hb_face_lazy_loader_tIS1_Lj15EE9hb_face_tLj15ES1_E7convertEPS1_(ptr noundef %4)
  ret ptr %5
}

; Function Attrs: mustprogress nounwind uwtable
define linkonce_odr dso_local noundef ptr @_ZNK16hb_lazy_loader_tIN2OT18glyf_accelerator_tE21hb_face_lazy_loader_tIS1_Lj15EE9hb_face_tLj15ES1_EptEv(ptr noundef nonnull align 8 dereferenceable(8) %0) #0 comdat align 2 {
  %2 = alloca ptr, align 8
  store ptr %0, ptr %2, align 8, !tbaa !48
  %3 = load ptr, ptr %2, align 8
  %4 = call noundef ptr @_ZNK16hb_lazy_loader_tIN2OT18glyf_accelerator_tE21hb_face_lazy_loader_tIS1_Lj15EE9hb_face_tLj15ES1_E3getEv(ptr noundef nonnull align 8 dereferenceable(8) %3)
  ret ptr %4
}

; Function Attrs: mustprogress nounwind uwtable
define hidden noundef i32 @_Z35_glyf_get_advance_with_var_unscaledP9hb_font_tjb(ptr noundef %0, i32 noundef %1, i1 noundef zeroext %2) #0 {
  %4 = alloca ptr, align 8
  %5 = alloca i32, align 4
  %6 = alloca i8, align 1
  store ptr %0, ptr %4, align 8, !tbaa !22
  store i32 %1, ptr %5, align 4, !tbaa !4
  %7 = zext i1 %2 to i8
  store i8 %7, ptr %6, align 1, !tbaa !24
  %8 = load ptr, ptr %4, align 8, !tbaa !22
  %9 = getelementptr inbounds nuw %struct.hb_font_t, ptr %8, i32 0, i32 4
  %10 = load ptr, ptr %9, align 8, !tbaa !26
  %11 = getelementptr inbounds nuw %struct.hb_face_t, ptr %10, i32 0, i32 11
  %12 = getelementptr inbounds nuw %struct.hb_ot_face_t, ptr %11, i32 0, i32 15
  %13 = call noundef ptr @_ZNK16hb_lazy_loader_tIN2OT18glyf_accelerator_tE21hb_face_lazy_loader_tIS1_Lj15EE9hb_face_tLj15ES1_EptEv(ptr noundef nonnull align 8 dereferenceable(8) %12)
  %14 = load ptr, ptr %4, align 8, !tbaa !22
  %15 = load i32, ptr %5, align 4, !tbaa !4
  %16 = load i8, ptr %6, align 1, !tbaa !24, !range !46, !noundef !47
  %17 = trunc i8 %16 to i1
  %18 = call noundef i32 @_ZNK2OT18glyf_accelerator_t29get_advance_with_var_unscaledEP9hb_font_tjb(ptr noundef nonnull align 8 dereferenceable(48) %13, ptr noundef %14, i32 noundef %15, i1 noundef zeroext %17)
  ret i32 %18
}