; Function Attrs: mustprogress nounwind uwtable
define hidden noundef i32 @_Z35_glyf_get_advance_with_var_unscaledP9hb_font_tjb(ptr noundef %0, i32 noundef %1, i1 noundef zeroext %2) local_unnamed_addr #0 {
  %4 = getelementptr inbounds nuw i8, ptr %0, i64 32
  %5 = load ptr, ptr %4, align 8, !tbaa !31
  %6 = getelementptr inbounds nuw i8, ptr %5, i64 224
  %7 = getelementptr inbounds nuw i8, ptr %5, i64 104
  %8 = load atomic i64, ptr %6 acquire, align 8
  %.not20.i.i.i = icmp eq i64 %8, 0
  br i1 %.not20.i.i.i, label %.lr.ph.i.i.i, label %.split.loop.exit16.i.i.i, !prof !11

.lr.ph.i.i.i:                                     ; preds = %3, %17
  %9 = load ptr, ptr %7, align 8, !tbaa !12
  %.not.i.i.i.i = icmp eq ptr %9, null
  br i1 %.not.i.i.i.i, label %_ZNK16hb_lazy_loader_tIN2OT18glyf_accelerator_tE21hb_face_lazy_loader_tIS1_Lj15EE9hb_face_tLj15ES1_EptEv.exit, label %10, !prof !15

10:                                               ; preds = %.lr.ph.i.i.i
  %11 = tail call noundef ptr @_ZNK17hb_data_wrapper_tI9hb_face_tLj15EE11call_createIN2OT18glyf_accelerator_tE21hb_face_lazy_loader_tIS4_Lj15EEEEPT_v(ptr noundef nonnull align 8 dereferenceable(8) %6)
  %.not10.i.i.i = icmp eq ptr %11, null
  br i1 %.not10.i.i.i, label %12, label %13, !prof !15

12:                                               ; preds = %10
  br label %13

13:                                               ; preds = %12, %10
  %.1.i.i.i = phi ptr [ @_hb_NullPool, %12 ], [ %11, %10 ]
  %14 = ptrtoint ptr %.1.i.i.i to i64
  %15 = cmpxchg weak ptr %6, i64 0, i64 %14 acq_rel monotonic, align 8
  %16 = extractvalue { i64, i1 } %15, 1
  br i1 %16, label %_ZNK16hb_lazy_loader_tIN2OT18glyf_accelerator_tE21hb_face_lazy_loader_tIS1_Lj15EE9hb_face_tLj15ES1_EptEv.exit, label %17, !prof !16

17:                                               ; preds = %13
  tail call void @_ZN16hb_lazy_loader_tIN2OT18glyf_accelerator_tE21hb_face_lazy_loader_tIS1_Lj15EE9hb_face_tLj15ES1_E10do_destroyEPS1_(ptr noundef nonnull %.1.i.i.i)
  %18 = load atomic i64, ptr %6 acquire, align 8
  %.not.i.i.i = icmp eq i64 %18, 0
  br i1 %.not.i.i.i, label %.lr.ph.i.i.i, label %.split.loop.exit16.i.i.i, !prof !17

.split.loop.exit16.i.i.i:                         ; preds = %17, %3
  %.lcssa.i.i.i = phi i64 [ %8, %3 ], [ %18, %17 ]
  %19 = inttoptr i64 %.lcssa.i.i.i to ptr
  br label %_ZNK16hb_lazy_loader_tIN2OT18glyf_accelerator_tE21hb_face_lazy_loader_tIS1_Lj15EE9hb_face_tLj15ES1_EptEv.exit

_ZNK16hb_lazy_loader_tIN2OT18glyf_accelerator_tE21hb_face_lazy_loader_tIS1_Lj15EE9hb_face_tLj15ES1_EptEv.exit: ; preds = %.lr.ph.i.i.i, %13, %.split.loop.exit16.i.i.i
  %.19.ph.i.i.i = phi ptr [ %19, %.split.loop.exit16.i.i.i ], [ @_hb_NullPool, %.lr.ph.i.i.i ], [ %.1.i.i.i, %13 ]
  %20 = tail call noundef i32 @_ZNK2OT18glyf_accelerator_t29get_advance_with_var_unscaledEP9hb_font_tjb(ptr noundef nonnull align 8 dereferenceable(48) %.19.ph.i.i.i, ptr noundef %0, i32 noundef %1, i1 noundef zeroext %2)
  ret i32 %20
}